target datalayout = "e-m:e-p270:32:32-p271:32:32-p272:64:64-i64:64-i128:128-f80:128-n8:16:32:64-S128"
target triple = "x86_64-pc-linux-gnu"

%struct.mbedtls_md_context_t = type { ptr, ptr, ptr }
%struct.mbedtls_md_info_t = type { i32, i8, i8 }

; Function Attrs: nounwind uwtable
define hidden i32 @mbedtls_md_starts(ptr noundef %0) #0 {
  %2 = alloca i32, align 4
  %3 = alloca ptr, align 8
  store ptr %0, ptr %3, align 8, !tbaa !7
  %4 = load ptr, ptr %3, align 8, !tbaa !7
  %5 = icmp eq ptr %4, null
  br i1 %5, label %11, label %6

6:                                                ; preds = %1
  %7 = load ptr, ptr %3, align 8, !tbaa !7
  %8 = getelementptr inbounds nuw %struct.mbedtls_md_context_t, ptr %7, i32 0, i32 0
  %9 = load ptr, ptr %8, align 8, !tbaa !10
  %10 = icmp eq ptr %9, null
  br i1 %10, label %11, label %12

11:                                               ; preds = %6, %1
  store i32 -20736, ptr %2, align 4
  br label %74

12:                                               ; preds = %6
  %13 = load ptr, ptr %3, align 8, !tbaa !7
  %14 = getelementptr inbounds nuw %struct.mbedtls_md_context_t, ptr %13, i32 0, i32 0
  %15 = load ptr, ptr %14, align 8, !tbaa !10
  %16 = getelementptr inbounds nuw %struct.mbedtls_md_info_t, ptr %15, i32 0, i32 0
  %17 = load i32, ptr %16, align 4, !tbaa !14
  switch i32 %17, label %73 [
    i32 3, label %18
    i32 4, label %23
    i32 5, label %28
    i32 8, label %33
    i32 9, label %38
    i32 10, label %43
    i32 11, label %48
    i32 16, label %53
    i32 17, label %58
    i32 18, label %63
    i32 19, label %68
  ]

18:                                               ; preds = %12
  %19 = load ptr, ptr %3, align 8, !tbaa !7
  %20 = getelementptr inbounds nuw %struct.mbedtls_md_context_t, ptr %19, i32 0, i32 1
  %21 = load ptr, ptr %20, align 8, !tbaa !13
  %22 = call i32 @mbedtls_md5_starts(ptr noundef %21)
  store i32 %22, ptr %2, align 4
  br label %74

23:                                               ; preds = %12
  %24 = load ptr, ptr %3, align 8, !tbaa !7
  %25 = getelementptr inbounds nuw %struct.mbedtls_md_context_t, ptr %24, i32 0, i32 1
  %26 = load ptr, ptr %25, align 8, !tbaa !13
  %27 = call i32 @mbedtls_ripemd160_starts(ptr noundef %26)
  store i32 %27, ptr %2, align 4
  br label %74

28:                                               ; preds = %12
  %29 = load ptr, ptr %3, align 8, !tbaa !7
  %30 = getelementptr inbounds nuw %struct.mbedtls_md_context_t, ptr %29, i32 0, i32 1
  %31 = load ptr, ptr %30, align 8, !tbaa !13
  %32 = call i32 @mbedtls_sha1_starts(ptr noundef %31)
  store i32 %32, ptr %2, align 4
  br label %74

33:                                               ; preds = %12
  %34 = load ptr, ptr %3, align 8, !tbaa !7
  %35 = getelementptr inbounds nuw %struct.mbedtls_md_context_t, ptr %34, i32 0, i32 1
  %36 = load ptr, ptr %35, align 8, !tbaa !13
  %37 = call i32 @mbedtls_sha256_starts(ptr noundef %36, i32 noundef 1)
  store i32 %37, ptr %2, align 4
  br label %74

38:                                               ; preds = %12
  %39 = load ptr, ptr %3, align 8, !tbaa !7
  %40 = getelementptr inbounds nuw %struct.mbedtls_md_context_t, ptr %39, i32 0, i32 1
  %41 = load ptr, ptr %40, align 8, !tbaa !13
  %42 = call i32 @mbedtls_sha256_starts(ptr noundef %41, i32 noundef 0)
  store i32 %42, ptr %2, align 4
  br label %74

43:                                               ; preds = %12
  %44 = load ptr, ptr %3, align 8, !tbaa !7
  %45 = getelementptr inbounds nuw %struct.mbedtls_md_context_t, ptr %44, i32 0, i32 1
  %46 = load ptr, ptr %45, align 8, !tbaa !13
  %47 = call i32 @mbedtls_sha512_starts(ptr noundef %46, i32 noundef 1)
  store i32 %47, ptr %2, align 4
  br label %74

48:                                               ; preds = %12
  %49 = load ptr, ptr %3, align 8, !tbaa !7
  %50 = getelementptr inbounds nuw %struct.mbedtls_md_context_t, ptr %49, i32 0, i32 1
  %51 = load ptr, ptr %50, align 8, !tbaa !13
  %52 = call i32 @mbedtls_sha512_starts(ptr noundef %51, i32 noundef 0)
  store i32 %52, ptr %2, align 4
  br label %74

53:                                               ; preds = %12
  %54 = load ptr, ptr %3, align 8, !tbaa !7
  %55 = getelementptr inbounds nuw %struct.mbedtls_md_context_t, ptr %54, i32 0, i32 1
  %56 = load ptr, ptr %55, align 8, !tbaa !13
  %57 = call i32 @mbedtls_sha3_starts(ptr noundef %56, i32 noundef 1)
  store i32 %57, ptr %2, align 4
  br label %74

58:                                               ; preds = %12
  %59 = load ptr, ptr %3, align 8, !tbaa !7
  %60 = getelementptr inbounds nuw %struct.mbedtls_md_context_t, ptr %59, i32 0, i32 1
  %61 = load ptr, ptr %60, align 8, !tbaa !13
  %62 = call i32 @mbedtls_sha3_starts(ptr noundef %61, i32 noundef 2)
  store i32 %62, ptr %2, align 4
  br label %74

63:                                               ; preds = %12
  %64 = load ptr, ptr %3, align 8, !tbaa !7
  %65 = getelementptr inbounds nuw %struct.mbedtls_md_context_t, ptr %64, i32 0, i32 1
  %66 = load ptr, ptr %65, align 8, !tbaa !13
  %67 = call i32 @mbedtls_sha3_starts(ptr noundef %66, i32 noundef 3)
  store i32 %67, ptr %2, align 4
  br label %74

68:                                               ; preds = %12
  %69 = load ptr, ptr %3, align 8, !tbaa !7
  %70 = getelementptr inbounds nuw %struct.mbedtls_md_context_t, ptr %69, i32 0, i32 1
  %71 = load ptr, ptr %70, align 8, !tbaa !13
  %72 = call i32 @mbedtls_sha3_starts(ptr noundef %71, i32 noundef 4)
  store i32 %72, ptr %2, align 4
  br label %74

73:                                               ; preds = %12
  store i32 -20736, ptr %2, align 4
  br label %74

74:                                               ; preds = %73, %68, %63, %58, %53, %48, %43, %38, %33, %28, %23, %18, %11
  %75 = load i32, ptr %2, align 4
  ret i32 %75
}