; Function Attrs: nounwind uwtable
define hidden i32 @mbedtls_md_starts(ptr noundef readonly %0) local_unnamed_addr #3 {
  %2 = icmp eq ptr %0, null
  br i1 %2, label %52, label %3

3:                                                ; preds = %1
  %4 = load ptr, ptr %0, align 8, !tbaa !3
  %5 = icmp eq ptr %4, null
  br i1 %5, label %52, label %6

6:                                                ; preds = %3
  %7 = load i32, ptr %4, align 4, !tbaa !10
  switch i32 %7, label %52 [
    i32 3, label %8
    i32 4, label %12
    i32 5, label %16
    i32 8, label %20
    i32 9, label %24
    i32 10, label %28
    i32 11, label %32
    i32 16, label %36
    i32 17, label %40
    i32 18, label %44
    i32 19, label %48
  ]

8:                                                ; preds = %6
  %9 = getelementptr inbounds nuw i8, ptr %0, i64 8
  %10 = load ptr, ptr %9, align 8, !tbaa !9
  %11 = tail call i32 @mbedtls_md5_starts(ptr noundef %10) #14
  br label %52

12:                                               ; preds = %6
  %13 = getelementptr inbounds nuw i8, ptr %0, i64 8
  %14 = load ptr, ptr %13, align 8, !tbaa !9
  %15 = tail call i32 @mbedtls_ripemd160_starts(ptr noundef %14) #14
  br label %52

16:                                               ; preds = %6
  %17 = getelementptr inbounds nuw i8, ptr %0, i64 8
  %18 = load ptr, ptr %17, align 8, !tbaa !9
  %19 = tail call i32 @mbedtls_sha1_starts(ptr noundef %18) #14
  br label %52

20:                                               ; preds = %6
  %21 = getelementptr inbounds nuw i8, ptr %0, i64 8
  %22 = load ptr, ptr %21, align 8, !tbaa !9
  %23 = tail call i32 @mbedtls_sha256_starts(ptr noundef %22, i32 noundef 1) #14
  br label %52

24:                                               ; preds = %6
  %25 = getelementptr inbounds nuw i8, ptr %0, i64 8
  %26 = load ptr, ptr %25, align 8, !tbaa !9
  %27 = tail call i32 @mbedtls_sha256_starts(ptr noundef %26, i32 noundef 0) #14
  br label %52

28:                                               ; preds = %6
  %29 = getelementptr inbounds nuw i8, ptr %0, i64 8
  %30 = load ptr, ptr %29, align 8, !tbaa !9
  %31 = tail call i32 @mbedtls_sha512_starts(ptr noundef %30, i32 noundef 1) #14
  br label %52

32:                                               ; preds = %6
  %33 = getelementptr inbounds nuw i8, ptr %0, i64 8
  %34 = load ptr, ptr %33, align 8, !tbaa !9
  %35 = tail call i32 @mbedtls_sha512_starts(ptr noundef %34, i32 noundef 0) #14
  br label %52

36:                                               ; preds = %6
  %37 = getelementptr inbounds nuw i8, ptr %0, i64 8
  %38 = load ptr, ptr %37, align 8, !tbaa !9
  %39 = tail call i32 @mbedtls_sha3_starts(ptr noundef %38, i32 noundef 1) #14
  br label %52

40:                                               ; preds = %6
  %41 = getelementptr inbounds nuw i8, ptr %0, i64 8
  %42 = load ptr, ptr %41, align 8, !tbaa !9
  %43 = tail call i32 @mbedtls_sha3_starts(ptr noundef %42, i32 noundef 2) #14
  br label %52

44:                                               ; preds = %6
  %45 = getelementptr inbounds nuw i8, ptr %0, i64 8
  %46 = load ptr, ptr %45, align 8, !tbaa !9
  %47 = tail call i32 @mbedtls_sha3_starts(ptr noundef %46, i32 noundef 3) #14
  br label %52

48:                                               ; preds = %6
  %49 = getelementptr inbounds nuw i8, ptr %0, i64 8
  %50 = load ptr, ptr %49, align 8, !tbaa !9
  %51 = tail call i32 @mbedtls_sha3_starts(ptr noundef %50, i32 noundef 4) #14
  br label %52

52:                                               ; preds = %6, %1, %3, %48, %44, %40, %36, %32, %28, %24, %20, %16, %12, %8
  %.0 = phi i32 [ %51, %48 ], [ %47, %44 ], [ %43, %40 ], [ %39, %36 ], [ %35, %32 ], [ %31, %28 ], [ %27, %24 ], [ %23, %20 ], [ %19, %16 ], [ %15, %12 ], [ %11, %8 ], [ -20736, %3 ], [ -20736, %1 ], [ -20736, %6 ]
  ret i32 %.0
}